; Function Attrs: nounwind uwtable
define i64 @H5F_get_eoa(ptr noundef readonly captures(none) %0, i32 noundef %1) local_unnamed_addr #2 {
  %3 = load i8, ptr @H5F_init_g, align 1, !tbaa !84, !range !43, !noundef !44
  %4 = trunc nuw i8 %3 to i1
  %5 = load i8, ptr @H5_libterm_g, align 1, !range !43
  %6 = trunc nuw i8 %5 to i1
  %7 = select i1 %4, i1 true, i1 %6
  br i1 %7, label %15, label %8, !prof !85

8:                                                ; preds = %2
  store i8 1, ptr @H5F_init_g, align 1, !tbaa !84
  %9 = tail call i32 @H5F__init_package() #5
  %10 = icmp slt i32 %9, 0
  br i1 %10, label %11, label %._crit_edge

._crit_edge:                                      ; preds = %8
  %.pre = load i8, ptr @H5F_init_g, align 1, !tbaa !84, !range !43
  %.pre5 = load i8, ptr @H5_libterm_g, align 1, !range !43
  %.pre6 = trunc nuw i8 %.pre to i1
  %.pre7 = trunc nuw i8 %.pre5 to i1
  br label %15

11:                                               ; preds = %8
  store i8 0, ptr @H5F_init_g, align 1, !tbaa !84
  %12 = load i64, ptr @H5E_FUNC_g, align 8, !tbaa !86
  %13 = load i64, ptr @H5E_CANTINIT_g, align 8, !tbaa !86
  %14 = tail call i32 (ptr, ptr, i32, i64, i64, ptr, ...) @H5E_printf_stack(ptr noundef nonnull @.str, ptr noundef nonnull @__func__.H5F_get_eoa, i32 noundef 927, i64 noundef %12, i64 noundef %13, ptr noundef nonnull @.str.1) #5
  br label %28

15:                                               ; preds = %._crit_edge, %2
  %.pre-phi8 = phi i1 [ %.pre7, %._crit_edge ], [ %6, %2 ]
  %.pre-phi = phi i1 [ %.pre6, %._crit_edge ], [ %4, %2 ]
  %16 = xor i1 %.pre-phi8, true
  %17 = select i1 %.pre-phi, i1 true, i1 %16
  br i1 %17, label %18, label %28, !prof !85

18:                                               ; preds = %15
  %19 = getelementptr inbounds nuw i8, ptr %0, i64 16
  %20 = load ptr, ptr %19, align 8, !tbaa !31
  %21 = load ptr, ptr %20, align 8, !tbaa !79
  %22 = tail call i64 @H5FD_get_eoa(ptr noundef %21, i32 noundef %1) #5
  %23 = icmp eq i64 %22, -1
  br i1 %23, label %24, label %28

24:                                               ; preds = %18
  %25 = load i64, ptr @H5E_VFL_g, align 8, !tbaa !86
  %26 = load i64, ptr @H5E_CANTINIT_g, align 8, !tbaa !86
  %27 = tail call i32 (ptr, ptr, i32, i64, i64, ptr, ...) @H5E_printf_stack(ptr noundef nonnull @.str, ptr noundef nonnull @__func__.H5F_get_eoa, i32 noundef 934, i64 noundef %25, i64 noundef %26, ptr noundef nonnull @.str.3) #5
  br label %28

28:                                               ; preds = %11, %24, %18, %15
  %.0 = phi i64 [ -1, %11 ], [ -1, %24 ], [ %22, %18 ], [ -1, %15 ]
  ret i64 %.0
}